; ModuleID = 'source-C-CXX/61/202.c'
source_filename = "source-C-CXX/61/202.c"
target datalayout = "e-m:e-p270:32:32-p271:32:32-p272:64:64-i64:64-f80:128-n8:16:32:64-S128"
target triple = "x86_64-pc-linux-gnu"

@.str = private unnamed_addr constant [3 x i8] c"%c\00", align 1

; Function Attrs: nofree nounwind sspstrong uwtable
define dso_local i32 @main() local_unnamed_addr #0 {
  %1 = alloca i8, align 1
  call void @llvm.lifetime.start.p0i8(i64 1, i8* nonnull %1) #5
  %2 = call i32 (i8*, ...) @__isoc99_scanf(i8* getelementptr inbounds ([3 x i8], [3 x i8]* @.str, i64 0, i64 0), i8* nonnull %1)
  %3 = icmp eq i32 %2, -1
  br i1 %3, label %20, label %4

4:                                                ; preds = %0, %17
  %5 = phi i32 [ %11, %17 ], [ -1, %0 ]
  %6 = load i8, i8* %1, align 1, !tbaa !5
  %7 = sext i8 %6 to i32
  %8 = call i32 @isspace(i32 %7) #6
  %9 = icmp eq i32 %8, 0
  %10 = add nsw i32 %5, 1
  %11 = select i1 %9, i32 -1, i32 %10
  %12 = icmp ne i32 %8, 0
  %13 = icmp ne i32 %11, 0
  %14 = select i1 %12, i1 %13, i1 false
  br i1 %14, label %17, label %15

15:                                               ; preds = %4
  %16 = call i32 @putchar(i32 %7)
  br label %17

17:                                               ; preds = %15, %4
  %18 = call i32 (i8*, ...) @__isoc99_scanf(i8* getelementptr inbounds ([3 x i8], [3 x i8]* @.str, i64 0, i64 0), i8* nonnull %1)
  %19 = icmp eq i32 %18, -1
  br i1 %19, label %20, label %4, !llvm.loop !8

20:                                               ; preds = %17, %0
  call void @llvm.lifetime.end.p0i8(i64 1, i8* nonnull %1) #5
  ret i32 0
}

; Function Attrs: argmemonly mustprogress nofree nosync nounwind willreturn
declare void @llvm.lifetime.start.p0i8(i64 immarg, i8* nocapture) #1

; Function Attrs: nofree nounwind
declare noundef i32 @__isoc99_scanf(i8* nocapture noundef readonly, ...) local_unnamed_addr #2

; Function Attrs: mustprogress nofree nounwind readonly willreturn
declare i32 @isspace(i32) local_unnamed_addr #3

; Function Attrs: argmemonly mustprogress nofree nosync nounwind willreturn
declare void @llvm.lifetime.end.p0i8(i64 immarg, i8* nocapture) #1

; Function Attrs: nofree nounwind
declare noundef i32 @putchar(i32 noundef) local_unnamed_addr #4


!llvm.module.flags = !{!0, !1, !2, !3}
!llvm.ident = !{!4}

!0 = !{i32 1, !"wchar_size", i32 4}
!1 = !{i32 7, !"PIC Level", i32 2}
!2 = !{i32 7, !"PIE Level", i32 2}
!3 = !{i32 7, !"uwtable", i32 1}
!4 = !{!"clang version 13.0.0"}
!5 = !{!6, !6, i64 0}
!6 = !{!"omnipotent char", !7, i64 0}
!7 = !{!"Simple C/C++ TBAA"}
!8 = distinct !{!8, !9}
!9 = !{!"llvm.loop.mustprogress"}
